(dp1
S'output'
p2
S'The "end" tag is unmatched, please check if you have a starting "block" tag'
p3
sS'layer'
p4
S"'layout.html'"
p5
sS'code'
p6
S'<!--[if HTML5]><![endif]-->\n<!DOCTYPE html>\n<!-- paulirish.com/2008/conditional-stylesheets-vs-css-hacks-answer-neither/ -->\n<!--[if lt IE 7]><html class="ie ie6 ie-lte9 ie-lte8 ie-lte7 no-js" lang="{{=T.accepted_language or \'en\'}}"> <![endif]-->\n<!--[if IE 7]><html class="ie ie7 ie-lte9 ie-lte8 ie-lte7 no-js" lang="{{=T.accepted_language or \'en\'}}"> <![endif]-->\n<!--[if IE 8]><html class="ie ie8 ie-lte9 ie-lte8 no-js" lang="{{=T.accepted_language or \'en\'}}"> <![endif]-->\n<!--[if IE 9]><html class="ie9 ie-lte9 no-js" lang="{{=T.accepted_language or \'en\'}}"> <![endif]-->\n<!--[if (gt IE 9)|!(IE)]><!--> <html class="no-js" lang="{{=T.accepted_language or \'en\'}}"> <!--<![endif]-->\n<head>\n<title>{{=response.title or request.application}}</title>\n  <!--[if !HTML5]>\n      <meta http-equiv="X-UA-Compatible" content="IE=edge{{=not request.is_local and \',chrome=1\' or \'\'}}">\n  <![endif]-->\n  <!-- www.phpied.com/conditional-comments-block-downloads/ -->\n  <!-- Always force latest IE rendering engine\n       (even in intranet) & Chrome Frame\n       Remove this if you use the .htaccess -->\n\t   \n  <meta charset="utf-8" />\n\n  <!-- http://dev.w3.org/html5/markup/meta.name.html -->\n  <meta name="application-name" content="{{=request.application}}" />\n\n  <!-- Speaking of Google, don\'t forget to set your site up:\n       http://google.com/webmasters -->\n  <meta name="google-site-verification" content="" />\n\n  <!--  Mobile Viewport Fix\n        j.mp/mobileviewport & davidbcalhoun.com/2010/viewport-metatag\n        device-width: Occupy full width of the screen in its current orientation\n        initial-scale = 1.0 retains dimensions instead of zooming out if page height > device height\n        user-scalable = yes allows the user to zoom in -->\n  <meta name="viewport" content="width=device-width, initial-scale=1.0" />\n\n  <link rel="shortcut icon" href="{{=URL(\'static\',\'images/favicon.ico\')}}" type="image/x-icon">\n  <link rel="apple-touch-icon" href="{{=URL(\'static\',\'images/favicon.png\')}}">\n\n  <!-- All JavaScript at the bottom, except for Modernizr which enables\n       HTML5 elements & feature detects -->\n  <script src="{{=URL(\'static\',\'js/modernizr.custom.js\')}}"></script>\n\n  <!-- include stylesheets -->\n  {{\n  response.files.insert(0,URL(\'static\',\'css/web2py.css\'))\n  response.files.insert(1,URL(\'static\',\'css/bootstrap.min.css\'))\n  response.files.insert(2,URL(\'static\',\'css/bootstrap-responsive.min.css\'))\n  response.files.insert(3,URL(\'static\',\'css/web2py_bootstrap.css\'))\n  }}\n\n  {{include \'web2py_ajax.html\'}}\n\n  {{\n  # using sidebars need to know what sidebar you want to use\n  left_sidebar_enabled = globals().get(\'left_sidebar_enabled\',False)\n  right_sidebar_enabled = globals().get(\'right_sidebar_enabled\',False)\n  middle_columns = {0:\'span12\',1:\'span9\',2:\'span6\'}[\n    (left_sidebar_enabled and 1 or 0)+(right_sidebar_enabled and 1 or 0)]\n  }}\n\n  <!-- uncomment here to load jquery-ui\n       <link rel="stylesheet" href="http://ajax.googleapis.com/ajax/libs/jqueryui/1.10.3/themes/ui-lightness/jquery-ui.css" type="text/css" media="all" />\n       <script src="http://ajax.googleapis.com/ajax/libs/jqueryui/1.10.3/jquery-ui.min.js" type="text/javascript"></script>\n       uncomment to load jquery-ui //-->\n  <noscript><link href="{{=URL(\'static\', \'css/web2py_bootstrap_nojs.css\')}}" rel="stylesheet" type="text/css" /></noscript>\n  {{block head}}{{end}}\n</head>\n\n<body>\n  <!-- Navbar ================================================== -->\n  <div class="navbar navbar-inverse">\n    <div class="flash">{{=response.flash or \'\'}}</div>\n    <div class="navbar-inner">\n      <div class="container">\n        {{is_mobile=request.user_agent().is_mobile}}\n        <!-- the next tag is necessary for bootstrap menus, do not remove -->\n        <button type="button" class="btn btn-navbar" data-toggle="collapse" data-target=".nav-collapse" style="{{=\'display:none;\' if not is_mobile else \'\'}}">\n          <span class="icon-bar"></span>\n          <span class="icon-bar"></span>\n          <span class="icon-bar"></span>\n        </button>\n        {{#=response.logo or \'\'}}\n        <ul id="navbar" class="nav pull-right">{{=\'auth\' in globals() and auth.navbar(mode="dropdown") or \'\'}}</ul>\n          <div>\n              <a href="/Roomie/home/home#">\n              <img src="/Roomie/static/images/roomie/roomie_cursive.jpeg" height="80" width="200" alt="Error"/>\n              </a>\n          </div>\n          <!--\n          <div class="{{=\'nav-collapse\' if is_mobile else \'nav\'}}">\n          {{if response.menu:}}\n          {{=MENU(response.menu, _class=\'mobile-menu nav\' if is_mobile else \'nav\',mobile=is_mobile,li_class=\'dropdown\',ul_class=\'dropdown-menu\')}}\n          {{pass}}\n        </div><!--/.nav-collapse -->\n          -->\n      </div>\n    </div>\n  </div><!--/top navbar -->\n\n  <div class="container">\n    <!-- Masthead ================================================== -->\n    <header class="mastheader row" id="header">\n      {{if response.title:}}\n        <div class="span12">\n            <div class="page-header">\n                <h1>\n                    {{=response.title}}\n                    <small>{{=response.subtitle or \'\'}}</small>\n                </h1>\n            </div>\n        </div>\n\t{{pass}}\n    </header>\n\n    <section id="main" class="main row">\n        {{if left_sidebar_enabled:}}\n        <div class="span3 left-sidebar">\n            {{block left_sidebar}}\n            <h3>Left Sidebar</h3>\n            <p></p>\n            {{end}}\n        </div>\n        {{pass}}\n\n        <div class="{{=middle_columns}}">\n\n            {{include}}\n            {{end}}\n        </div>\n\n        {{if right_sidebar_enabled:}}\n        <div class="span3">\n            {{block right_sidebar}}\n            <h3>Right Sidebar</h3>\n            <p></p>\n            {{end}}\n        </div>\n        {{pass}}\n    </section><!--/main-->\n\n    <!-- Footer ================================================== -->\n    <div class="row">\n        <footer class="footer span12" id="footer">\n\n        </footer>\n    </div>\n\n  </div> <!-- /container -->\n\n  <!-- The javascript =============================================\n       (Placed at the end of the document so the pages load faster) -->\n  <script src="{{=URL(\'static\',\'js/bootstrap.min.js\')}}"></script>\n  <script src="{{=URL(\'static\',\'js/web2py_bootstrap.js\')}}"></script>\n  <!--[if lt IE 7 ]>\n      <script src="{{=URL(\'static\',\'js/dd_belatedpng.js\')}}"></script>\n      <script> DD_belatedPNG.fix(\'img, .png_bg\'); //fix any <img> or .png_bg background-images </script>\n      <![endif]-->\n  \n  {{if response.google_analytics_id:}}\n  <!-- Google Analytics -->\n  <script>\n    (function(i,s,o,g,r,a,m){i[\'GoogleAnalyticsObject\']=r;i[r]=i[r]||function(){\n(i[r].q=i[r].q||[]).push(arguments)},i[r].l=1*new Date();a=s.createElement(o),\nm=s.getElementsByTagName(o)[0];a.async=1;a.src=g;m.parentNode.insertBefore(a,m)\n})(window,document,\'script\',\'//www.google-analytics.com/analytics.js\',\'ga\');\n    ga(\'create\', \'{{=response.google_analytics_id}}\', \'auto\');\n    ga(\'send\', \'pageview\');\n  </script>\n  <!-- End Google Analytics -->\n  {{pass}}\n  <script src="{{=URL(\'static\',\'js/share.js\',vars=dict(static=URL(\'static\',\'images\')))}}"></script>\n</body>\n</html>\n'
p7
sS'snapshot'
p8
(dp9
S'exception'
p10
(dp11
S'__module__'
p12
S"'gluon.rocket'"
p13
sS'__getslice__'
p14
S"<method-wrapper '__getslice__' of SocketTimeout object>"
p15
sS'__str__'
p16
S"<method-wrapper '__str__' of SocketTimeout object>"
p17
sS'__reduce__'
p18
S'<built-in method __reduce__ of SocketTimeout object>'
p19
sS'__dict__'
p20
S'{}'
p21
sS'__sizeof__'
p22
S'<built-in method __sizeof__ of SocketTimeout object>'
p23
sS'__weakref__'
p24
S'None'
p25
sS'__init__'
p26
S"<method-wrapper '__init__' of SocketTimeout object>"
p27
sS'__setattr__'
p28
S"<method-wrapper '__setattr__' of SocketTimeout object>"
p29
sS'__reduce_ex__'
p30
S'<built-in method __reduce_ex__ of SocketTimeout object>'
p31
sS'__new__'
p32
S'<built-in method __new__ of type object>'
p33
sS'__format__'
p34
S'<built-in method __format__ of SocketTimeout object>'
p35
sS'__class__'
p36
S"<class 'gluon.rocket.SocketTimeout'>"
p37
sS'__doc__'
p38
S"'Exception for when a socket times out between requests.'"
p39
sS'__getitem__'
p40
S"<method-wrapper '__getitem__' of SocketTimeout object>"
p41
sS'__setstate__'
p42
S'<built-in method __setstate__ of SocketTimeout object>'
p43
sS'__getattribute__'
p44
S"<method-wrapper '__getattribute__' of SocketTimeout object>"
p45
sS'args'
p46
S"('Socket timed out before request.',)"
p47
sS'__subclasshook__'
p48
S'<built-in method __subclasshook__ of type object>'
p49
sS'__unicode__'
p50
S'<built-in method __unicode__ of SocketTimeout object>'
p51
sS'__delattr__'
p52
S"<method-wrapper '__delattr__' of SocketTimeout object>"
p53
sS'__repr__'
p54
S"<method-wrapper '__repr__' of SocketTimeout object>"
p55
sS'__hash__'
p56
S"<method-wrapper '__hash__' of SocketTimeout object>"
p57
ssS'evalue'
p58
S'Socket timed out before request.'
p59
sS'frames'
p60
(lp61
(dp62
S'file'
p63
S'/Applications/web2py.app/Contents/Resources/gluon/rocket.py'
p64
sS'dump'
p65
(dp66
sS'lnum'
p67
I1337
sS'lines'
p68
(dp69
I1332
S'            # Enter connection serve loop'
p70
sI1333
S'            while True:'
p71
sI1334
S'                if __debug__:'
p72
sI1335
S"                    self.err_log.debug('Serving a request')"
p73
sI1336
S'                try:'
p74
sI1337
S'                    self.run_app(conn)'
p75
sI1338
S'                except:'
p76
sI1339
S'                    exc = sys.exc_info()'
p77
sI1340
S'                    handled = self._handleError(*exc)'
p78
sI1341
S'                    if handled:'
p79
ssS'call'
p80
S'(self=<WSGIWorker(Thread-6, started daemon 4483776512)>)'
p81
sS'func'
p82
S'run'
p83
sa(dp84
g63
S'/Applications/web2py.app/Contents/Resources/gluon/rocket.py'
p85
sg65
(dp86
sg67
I1830
sg68
(dp87
I1825
S'        else:'
p88
sI1826
S'            sock_file = conn.makefile(BUF_SIZE)'
p89
sI1827
S''
sI1828
S'        try:'
p90
sI1829
S'            # Read the headers and build our WSGI environment'
p91
sI1830
S'            self.environ = environ = self.build_environ(sock_file, conn)'
p92
sI1831
S''
sI1832
S'            # Handle 100 Continue'
p93
sI1833
S"            if environ.get('HTTP_EXPECT', '') == '100-continue':"
p94
sI1834
S"                res = environ['SERVER_PROTOCOL'] + ' 100 Continue\\r\\n\\r\\n'"
p95
ssg80
S'(self=<WSGIWorker(Thread-6, started daemon 4483776512)>, conn=<gluon.rocket.Connection object>)'
p96
sg82
S'run_app'
p97
sa(dp98
g63
S'/Applications/web2py.app/Contents/Resources/gluon/rocket.py'
p99
sg65
(dp100
sg67
I1650
sg68
(dp101
I1645
S'                                      "wsgiorg.futures": executor.futures})'
p102
sI1646
S''
sI1647
S'    def build_environ(self, sock_file, conn):'
p103
sI1648
S'        """ Build the execution environment. """'
p104
sI1649
S'        # Grab the request line'
p105
sI1650
S'        request = self.read_request_line(sock_file)'
p106
sI1651
S''
sI1652
S'        # Copy the Base Environment'
p107
sI1653
S'        environ = self.base_environ.copy()'
p108
sI1654
S''
ssg80
S'(self=<WSGIWorker(Thread-6, started daemon 4483776512)>, sock_file=<socket._fileobject object>, conn=<gluon.rocket.Connection object>)'
p109
sg82
S'build_environ'
p110
sa(dp111
g63
S'/Applications/web2py.app/Contents/Resources/gluon/rocket.py'
p112
sg65
(dp113
sg67
I1401
sg68
(dp114
I1396
S''
sI1397
S'                d = sock_file.readline()'
p115
sI1398
S'                if PY3K:'
p116
sI1399
S"                    d = d.decode('ISO-8859-1')"
p117
sI1400
S'        except socket.timeout:'
p118
sI1401
S"            raise SocketTimeout('Socket timed out before request.')"
p119
sI1402
S'        except TypeError:'
p120
sI1403
S'            raise SocketClosed('
p121
sI1404
S"                'SSL bug caused closure of socket.  See '"
p122
sI1405
S'                \'"https://groups.google.com/d/topic/web2py/P_Gw0JxWzCs".\')'
p123
ssg80
S'(self=<WSGIWorker(Thread-6, started daemon 4483776512)>, sock_file=<socket._fileobject object>)'
p124
sg82
S'read_request_line'
p125
sasS'pyver'
p126
S'Python 2.7.3: /Applications/web2py.app/Contents/MacOS/python (prefix: /Applications/web2py.app/Contents/Resources)'
p127
sS'etype'
p128
S"<class 'gluon.rocket.SocketTimeout'>"
p129
sS'date'
p130
S'Sun Mar 15 18:51:02 2015'
p131
sS'locals'
p132
(dp133
S'sock_file'
p134
S'<socket._fileobject object>'
p135
sS'self'
p136
S'<WSGIWorker(Thread-6, started daemon 4483776512)>'
p137
sssS'traceback'
p138
S'Traceback (most recent call last):\n  File "/Applications/web2py.app/Contents/Resources/gluon/rocket.py", line 1337, in run\n  File "/Applications/web2py.app/Contents/Resources/gluon/rocket.py", line 1830, in run_app\n  File "/Applications/web2py.app/Contents/Resources/gluon/rocket.py", line 1650, in build_environ\n  File "/Applications/web2py.app/Contents/Resources/gluon/rocket.py", line 1401, in read_request_line\nSocketTimeout: Socket timed out before request.\n'
p139
s.